target datalayout = "e-m:e-p270:32:32-p271:32:32-p272:64:64-i64:64-i128:128-f80:128-n8:16:32:64-S128"
target triple = "x86_64-pc-linux-gnu"

%struct.PlannedStmt = type { i32, i32, i64, i8, i8, i8, i8, i8, i8, i32, ptr, ptr, ptr, ptr, ptr, ptr, ptr, ptr, ptr, ptr, ptr, ptr, ptr, ptr, i32, i32 }
%struct.Node = type { i32 }
%struct.Query = type { i32, i32, i32, i64, i8, ptr, i32, i8, i8, i8, i8, i8, i8, i8, i8, i8, i8, i8, ptr, ptr, ptr, ptr, ptr, i32, ptr, ptr, i32, ptr, ptr, ptr, ptr, ptr, i8, ptr, ptr, ptr, ptr, ptr, ptr, ptr, i32, ptr, ptr, ptr, ptr, i32, i32 }
%struct.PortalData = type { ptr, ptr, ptr, ptr, ptr, i32, i32, i32, ptr, i32, %struct.QueryCompletion, ptr, ptr, ptr, ptr, i32, i32, i32, i8, i8, ptr, ptr, ptr, ptr, ptr, ptr, ptr, i8, i8, i64, i64, i8 }
%struct.QueryCompletion = type { i32, i64 }
%struct.Plan = type { i32, i32, double, double, double, i32, i8, i8, i8, i32, ptr, ptr, ptr, ptr, ptr, ptr, ptr }
%struct.FetchStmt = type { i32, i32, i64, ptr, i8 }
%struct.ExecuteStmt = type { i32, ptr, ptr }

; Function Attrs: nounwind uwtable
define dso_local ptr @FetchPortalTargetList(ptr noundef %0) #0 {
  %2 = alloca ptr, align 8
  %3 = alloca ptr, align 8
  store ptr %0, ptr %3, align 8
  %4 = load ptr, ptr %3, align 8
  %5 = getelementptr inbounds nuw %struct.PortalData, ptr %4, i32 0, i32 15
  %6 = load i32, ptr %5, align 8
  %7 = icmp eq i32 %6, 4
  br i1 %7, label %8, label %9

8:                                                ; preds = %1
  store ptr null, ptr %2, align 8
  br label %13

9:                                                ; preds = %1
  %10 = load ptr, ptr %3, align 8
  %11 = call ptr @PortalGetPrimaryStmt(ptr noundef %10)
  %12 = call ptr @FetchStatementTargetList(ptr noundef %11)
  store ptr %12, ptr %2, align 8
  br label %13

13:                                               ; preds = %9, %8
  %14 = load ptr, ptr %2, align 8
  ret ptr %14
}

; Function Attrs: nounwind uwtable
define dso_local ptr @FetchStatementTargetList(ptr noundef %0) #0 {
  %2 = alloca ptr, align 8
  %3 = alloca ptr, align 8
  %4 = alloca ptr, align 8
  %5 = alloca i32, align 4
  %6 = alloca ptr, align 8
  %7 = alloca ptr, align 8
  %8 = alloca ptr, align 8
  %9 = alloca ptr, align 8
  %10 = alloca ptr, align 8
  store ptr %0, ptr %3, align 8
  %11 = load ptr, ptr %3, align 8
  %12 = icmp eq ptr %11, null
  br i1 %12, label %13, label %14

13:                                               ; preds = %1
  store ptr null, ptr %2, align 8
  br label %121

14:                                               ; preds = %1
  %15 = load ptr, ptr %3, align 8
  %16 = getelementptr inbounds nuw %struct.Node, ptr %15, i32 0, i32 0
  %17 = load i32, ptr %16, align 4
  %18 = icmp eq i32 %17, 67
  br i1 %18, label %19, label %52

19:                                               ; preds = %14
  call void @llvm.lifetime.start.p0(i64 8, ptr %4) #10
  %20 = load ptr, ptr %3, align 8
  store ptr %20, ptr %4, align 8
  %21 = load ptr, ptr %4, align 8
  %22 = getelementptr inbounds nuw %struct.Query, ptr %21, i32 0, i32 1
  %23 = load i32, ptr %22, align 4
  %24 = icmp eq i32 %23, 6
  br i1 %24, label %25, label %29

25:                                               ; preds = %19
  %26 = load ptr, ptr %4, align 8
  %27 = getelementptr inbounds nuw %struct.Query, ptr %26, i32 0, i32 5
  %28 = load ptr, ptr %27, align 8
  store ptr %28, ptr %3, align 8
  br label %48

29:                                               ; preds = %19
  %30 = load ptr, ptr %4, align 8
  %31 = getelementptr inbounds nuw %struct.Query, ptr %30, i32 0, i32 1
  %32 = load i32, ptr %31, align 4
  %33 = icmp eq i32 %32, 1
  br i1 %33, label %34, label %38

34:                                               ; preds = %29
  %35 = load ptr, ptr %4, align 8
  %36 = getelementptr inbounds nuw %struct.Query, ptr %35, i32 0, i32 25
  %37 = load ptr, ptr %36, align 8
  store ptr %37, ptr %2, align 8
  store i32 1, ptr %5, align 4
  br label %49

38:                                               ; preds = %29
  %39 = load ptr, ptr %4, align 8
  %40 = getelementptr inbounds nuw %struct.Query, ptr %39, i32 0, i32 30
  %41 = load ptr, ptr %40, align 8
  %42 = icmp ne ptr %41, null
  br i1 %42, label %43, label %47

43:                                               ; preds = %38
  %44 = load ptr, ptr %4, align 8
  %45 = getelementptr inbounds nuw %struct.Query, ptr %44, i32 0, i32 30
  %46 = load ptr, ptr %45, align 8
  store ptr %46, ptr %2, align 8
  store i32 1, ptr %5, align 4
  br label %49

47:                                               ; preds = %38
  store ptr null, ptr %2, align 8
  store i32 1, ptr %5, align 4
  br label %49

48:                                               ; preds = %25
  store i32 0, ptr %5, align 4
  br label %49

49:                                               ; preds = %48, %47, %43, %34
  call void @llvm.lifetime.end.p0(i64 8, ptr %4) #10
  %50 = load i32, ptr %5, align 4
  switch i32 %50, label %123 [
    i32 0, label %51
    i32 1, label %121
  ]

51:                                               ; preds = %49
  br label %52

52:                                               ; preds = %51, %14
  %53 = load ptr, ptr %3, align 8
  %54 = getelementptr inbounds nuw %struct.Node, ptr %53, i32 0, i32 0
  %55 = load i32, ptr %54, align 4
  %56 = icmp eq i32 %55, 329
  br i1 %56, label %57, label %94

57:                                               ; preds = %52
  call void @llvm.lifetime.start.p0(i64 8, ptr %6) #10
  %58 = load ptr, ptr %3, align 8
  store ptr %58, ptr %6, align 8
  %59 = load ptr, ptr %6, align 8
  %60 = getelementptr inbounds nuw %struct.PlannedStmt, ptr %59, i32 0, i32 1
  %61 = load i32, ptr %60, align 4
  %62 = icmp eq i32 %61, 6
  br i1 %62, label %63, label %67

63:                                               ; preds = %57
  %64 = load ptr, ptr %6, align 8
  %65 = getelementptr inbounds nuw %struct.PlannedStmt, ptr %64, i32 0, i32 23
  %66 = load ptr, ptr %65, align 8
  store ptr %66, ptr %3, align 8
  br label %90

67:                                               ; preds = %57
  %68 = load ptr, ptr %6, align 8
  %69 = getelementptr inbounds nuw %struct.PlannedStmt, ptr %68, i32 0, i32 1
  %70 = load i32, ptr %69, align 4
  %71 = icmp eq i32 %70, 1
  br i1 %71, label %72, label %78

72:                                               ; preds = %67
  %73 = load ptr, ptr %6, align 8
  %74 = getelementptr inbounds nuw %struct.PlannedStmt, ptr %73, i32 0, i32 10
  %75 = load ptr, ptr %74, align 8
  %76 = getelementptr inbounds nuw %struct.Plan, ptr %75, i32 0, i32 10
  %77 = load ptr, ptr %76, align 8
  store ptr %77, ptr %2, align 8
  store i32 1, ptr %5, align 4
  br label %91

78:                                               ; preds = %67
  %79 = load ptr, ptr %6, align 8
  %80 = getelementptr inbounds nuw %struct.PlannedStmt, ptr %79, i32 0, i32 3
  %81 = load i8, ptr %80, align 8, !range !4, !noundef !5
  %82 = trunc i8 %81 to i1
  br i1 %82, label %83, label %89

83:                                               ; preds = %78
  %84 = load ptr, ptr %6, align 8
  %85 = getelementptr inbounds nuw %struct.PlannedStmt, ptr %84, i32 0, i32 10
  %86 = load ptr, ptr %85, align 8
  %87 = getelementptr inbounds nuw %struct.Plan, ptr %86, i32 0, i32 10
  %88 = load ptr, ptr %87, align 8
  store ptr %88, ptr %2, align 8
  store i32 1, ptr %5, align 4
  br label %91

89:                                               ; preds = %78
  store ptr null, ptr %2, align 8
  store i32 1, ptr %5, align 4
  br label %91

90:                                               ; preds = %63
  store i32 0, ptr %5, align 4
  br label %91

91:                                               ; preds = %90, %89, %83, %72
  call void @llvm.lifetime.end.p0(i64 8, ptr %6) #10
  %92 = load i32, ptr %5, align 4
  switch i32 %92, label %123 [
    i32 0, label %93
    i32 1, label %121
  ]

93:                                               ; preds = %91
  br label %94

94:                                               ; preds = %93, %52
  %95 = load ptr, ptr %3, align 8
  %96 = getelementptr inbounds nuw %struct.Node, ptr %95, i32 0, i32 0
  %97 = load i32, ptr %96, align 4
  %98 = icmp eq i32 %97, 202
  br i1 %98, label %99, label %107

99:                                               ; preds = %94
  call void @llvm.lifetime.start.p0(i64 8, ptr %7) #10
  %100 = load ptr, ptr %3, align 8
  store ptr %100, ptr %7, align 8
  call void @llvm.lifetime.start.p0(i64 8, ptr %8) #10
  %101 = load ptr, ptr %7, align 8
  %102 = getelementptr inbounds nuw %struct.FetchStmt, ptr %101, i32 0, i32 3
  %103 = load ptr, ptr %102, align 8
  %104 = call ptr @GetPortalByName(ptr noundef %103)
  store ptr %104, ptr %8, align 8
  %105 = load ptr, ptr %8, align 8
  %106 = call ptr @FetchPortalTargetList(ptr noundef %105)
  store ptr %106, ptr %2, align 8
  store i32 1, ptr %5, align 4
  call void @llvm.lifetime.end.p0(i64 8, ptr %8) #10
  call void @llvm.lifetime.end.p0(i64 8, ptr %7) #10
  br label %121

107:                                              ; preds = %94
  %108 = load ptr, ptr %3, align 8
  %109 = getelementptr inbounds nuw %struct.Node, ptr %108, i32 0, i32 0
  %110 = load i32, ptr %109, align 4
  %111 = icmp eq i32 %110, 252
  br i1 %111, label %112, label %120

112:                                              ; preds = %107
  call void @llvm.lifetime.start.p0(i64 8, ptr %9) #10
  %113 = load ptr, ptr %3, align 8
  store ptr %113, ptr %9, align 8
  call void @llvm.lifetime.start.p0(i64 8, ptr %10) #10
  %114 = load ptr, ptr %9, align 8
  %115 = getelementptr inbounds nuw %struct.ExecuteStmt, ptr %114, i32 0, i32 1
  %116 = load ptr, ptr %115, align 8
  %117 = call ptr @FetchPreparedStatement(ptr noundef %116, i1 noundef zeroext true)
  store ptr %117, ptr %10, align 8
  %118 = load ptr, ptr %10, align 8
  %119 = call ptr @FetchPreparedStatementTargetList(ptr noundef %118)
  store ptr %119, ptr %2, align 8
  store i32 1, ptr %5, align 4
  call void @llvm.lifetime.end.p0(i64 8, ptr %10) #10
  call void @llvm.lifetime.end.p0(i64 8, ptr %9) #10
  br label %121

120:                                              ; preds = %107
  store ptr null, ptr %2, align 8
  br label %121

121:                                              ; preds = %120, %112, %99, %91, %49, %13
  %122 = load ptr, ptr %2, align 8
  ret ptr %122

123:                                              ; preds = %91, %49
  unreachable
}