; Function Attrs: nounwind uwtable
define dso_local ptr @FetchStatementTargetList(ptr noundef readonly captures(address_is_null) %0) local_unnamed_addr #0 {
  %2 = icmp eq ptr %0, null
  br i1 %2, label %FetchPortalTargetList.exit, label %.lr.ph

.lr.ph:                                           ; preds = %1, %tailrecurse
  %.tr55 = phi ptr [ %49, %tailrecurse ], [ %0, %1 ]
  %3 = load i32, ptr %.tr55, align 4
  %4 = icmp eq i32 %3, 67
  br i1 %4, label %5, label %17

5:                                                ; preds = %.lr.ph
  %6 = getelementptr inbounds nuw i8, ptr %.tr55, i64 4
  %7 = load i32, ptr %6, align 4
  switch i32 %7, label %11 [
    i32 6, label %14
    i32 1, label %8
  ]

8:                                                ; preds = %5
  %9 = getelementptr inbounds nuw i8, ptr %.tr55, i64 112
  %10 = load ptr, ptr %9, align 8
  br label %FetchPortalTargetList.exit

11:                                               ; preds = %5
  %12 = getelementptr inbounds nuw i8, ptr %.tr55, i64 152
  %13 = load ptr, ptr %12, align 8
  br label %FetchPortalTargetList.exit

14:                                               ; preds = %5
  %15 = getelementptr inbounds nuw i8, ptr %.tr55, i64 32
  %16 = load ptr, ptr %15, align 8
  %.pr = load i32, ptr %16, align 4
  br label %17

17:                                               ; preds = %14, %.lr.ph
  %18 = phi i32 [ %.pr, %14 ], [ %3, %.lr.ph ]
  %.027 = phi ptr [ %16, %14 ], [ %.tr55, %.lr.ph ]
  %19 = icmp eq i32 %18, 329
  br i1 %19, label %20, label %40

20:                                               ; preds = %17
  %21 = getelementptr inbounds nuw i8, ptr %.027, i64 4
  %22 = load i32, ptr %21, align 4
  switch i32 %22, label %28 [
    i32 6, label %37
    i32 1, label %23
  ]

23:                                               ; preds = %20
  %24 = getelementptr inbounds nuw i8, ptr %.027, i64 32
  %25 = load ptr, ptr %24, align 8
  %26 = getelementptr inbounds nuw i8, ptr %25, i64 48
  %27 = load ptr, ptr %26, align 8
  br label %FetchPortalTargetList.exit

28:                                               ; preds = %20
  %29 = getelementptr inbounds nuw i8, ptr %.027, i64 16
  %30 = load i8, ptr %29, align 8, !range !4, !noundef !5
  %31 = trunc nuw i8 %30 to i1
  br i1 %31, label %32, label %FetchPortalTargetList.exit

32:                                               ; preds = %28
  %33 = getelementptr inbounds nuw i8, ptr %.027, i64 32
  %34 = load ptr, ptr %33, align 8
  %35 = getelementptr inbounds nuw i8, ptr %34, i64 48
  %36 = load ptr, ptr %35, align 8
  br label %FetchPortalTargetList.exit

37:                                               ; preds = %20
  %38 = getelementptr inbounds nuw i8, ptr %.027, i64 136
  %39 = load ptr, ptr %38, align 8
  %.pre = load i32, ptr %39, align 4
  br label %40

40:                                               ; preds = %37, %17
  %41 = phi i32 [ %.pre, %37 ], [ %18, %17 ]
  %.229 = phi ptr [ %39, %37 ], [ %.027, %17 ]
  switch i32 %41, label %FetchPortalTargetList.exit [
    i32 202, label %42
    i32 252, label %51
  ]

42:                                               ; preds = %40
  %43 = getelementptr inbounds nuw i8, ptr %.229, i64 16
  %44 = load ptr, ptr %43, align 8
  %45 = tail call ptr @GetPortalByName(ptr noundef %44) #11
  %46 = getelementptr inbounds nuw i8, ptr %45, i64 120
  %47 = load i32, ptr %46, align 8
  %48 = icmp eq i32 %47, 4
  br i1 %48, label %FetchPortalTargetList.exit, label %tailrecurse

tailrecurse:                                      ; preds = %42
  %49 = tail call ptr @PortalGetPrimaryStmt(ptr noundef nonnull %45) #11
  %50 = icmp eq ptr %49, null
  br i1 %50, label %FetchPortalTargetList.exit, label %.lr.ph

51:                                               ; preds = %40
  %52 = getelementptr inbounds nuw i8, ptr %.229, i64 8
  %53 = load ptr, ptr %52, align 8
  %54 = tail call ptr @FetchPreparedStatement(ptr noundef %53, i1 noundef zeroext true) #11
  %55 = tail call ptr @FetchPreparedStatementTargetList(ptr noundef %54) #11
  br label %FetchPortalTargetList.exit

FetchPortalTargetList.exit:                       ; preds = %tailrecurse, %40, %42, %1, %23, %32, %28, %8, %11, %51
  %.0 = phi ptr [ %55, %51 ], [ %13, %11 ], [ %10, %8 ], [ null, %28 ], [ %36, %32 ], [ %27, %23 ], [ null, %1 ], [ null, %42 ], [ null, %40 ], [ null, %tailrecurse ]
  ret ptr %.0
}